target datalayout = "e-m:e-p270:32:32-p271:32:32-p272:64:64-i64:64-i128:128-f80:128-n8:16:32:64-S128"
target triple = "x86_64-pc-linux-gnu"

%struct.Vec_Int_t_ = type { i32, i32, ptr }
%struct.Abc_Obj_t_ = type { ptr, ptr, i32, i32, %struct.Vec_Int_t_, %struct.Vec_Int_t_, %union.anon, %union.anon.0 }
%union.anon = type { ptr }
%union.anon.0 = type { ptr }
%struct.Vec_Ptr_t_ = type { i32, i32, ptr }

; Function Attrs: nounwind uwtable
define internal void @Vec_IntGrow(ptr noundef %0, i32 noundef %1) #0 {
  %3 = alloca ptr, align 8
  %4 = alloca i32, align 4
  store ptr %0, ptr %3, align 8
  store i32 %1, ptr %4, align 4
  %5 = load ptr, ptr %3, align 8
  %6 = getelementptr inbounds %struct.Vec_Int_t_, ptr %5, i32 0, i32 0
  %7 = load i32, ptr %6, align 8
  %8 = load i32, ptr %4, align 4
  %9 = icmp sge i32 %7, %8
  br i1 %9, label %10, label %11

10:                                               ; preds = %2
  br label %36

11:                                               ; preds = %2
  %12 = load ptr, ptr %3, align 8
  %13 = getelementptr inbounds %struct.Vec_Int_t_, ptr %12, i32 0, i32 2
  %14 = load ptr, ptr %13, align 8
  %15 = icmp ne ptr %14, null
  br i1 %15, label %16, label %24

16:                                               ; preds = %11
  %17 = load ptr, ptr %3, align 8
  %18 = getelementptr inbounds %struct.Vec_Int_t_, ptr %17, i32 0, i32 2
  %19 = load ptr, ptr %18, align 8
  %20 = load i32, ptr %4, align 4
  %21 = sext i32 %20 to i64
  %22 = mul i64 4, %21
  %23 = call ptr @realloc(ptr noundef %19, i64 noundef %22) #8
  br label %29

24:                                               ; preds = %11
  %25 = load i32, ptr %4, align 4
  %26 = sext i32 %25 to i64
  %27 = mul i64 4, %26
  %28 = call noalias ptr @malloc(i64 noundef %27) #7
  br label %29

29:                                               ; preds = %24, %16
  %30 = phi ptr [ %23, %16 ], [ %28, %24 ]
  %31 = load ptr, ptr %3, align 8
  %32 = getelementptr inbounds %struct.Vec_Int_t_, ptr %31, i32 0, i32 2
  store ptr %30, ptr %32, align 8
  %33 = load i32, ptr %4, align 4
  %34 = load ptr, ptr %3, align 8
  %35 = getelementptr inbounds %struct.Vec_Int_t_, ptr %34, i32 0, i32 0
  store i32 %33, ptr %35, align 8
  br label %36

36:                                               ; preds = %29, %10
  ret void
}

; Function Attrs: nounwind uwtable
define internal void @Vec_IntPush(ptr noundef %0, i32 noundef %1) #0 {
  %3 = alloca ptr, align 8
  %4 = alloca i32, align 4
  store ptr %0, ptr %3, align 8
  store i32 %1, ptr %4, align 4
  %5 = load ptr, ptr %3, align 8
  %6 = getelementptr inbounds %struct.Vec_Int_t_, ptr %5, i32 0, i32 1
  %7 = load i32, ptr %6, align 4
  %8 = load ptr, ptr %3, align 8
  %9 = getelementptr inbounds %struct.Vec_Int_t_, ptr %8, i32 0, i32 0
  %10 = load i32, ptr %9, align 8
  %11 = icmp eq i32 %7, %10
  br i1 %11, label %12, label %26

12:                                               ; preds = %2
  %13 = load ptr, ptr %3, align 8
  %14 = getelementptr inbounds %struct.Vec_Int_t_, ptr %13, i32 0, i32 0
  %15 = load i32, ptr %14, align 8
  %16 = icmp slt i32 %15, 16
  br i1 %16, label %17, label %19

17:                                               ; preds = %12
  %18 = load ptr, ptr %3, align 8
  call void @Vec_IntGrow(ptr noundef %18, i32 noundef 16)
  br label %25

19:                                               ; preds = %12
  %20 = load ptr, ptr %3, align 8
  %21 = load ptr, ptr %3, align 8
  %22 = getelementptr inbounds %struct.Vec_Int_t_, ptr %21, i32 0, i32 0
  %23 = load i32, ptr %22, align 8
  %24 = mul nsw i32 2, %23
  call void @Vec_IntGrow(ptr noundef %20, i32 noundef %24)
  br label %25

25:                                               ; preds = %19, %17
  br label %26

26:                                               ; preds = %25, %2
  %27 = load i32, ptr %4, align 4
  %28 = load ptr, ptr %3, align 8
  %29 = getelementptr inbounds %struct.Vec_Int_t_, ptr %28, i32 0, i32 2
  %30 = load ptr, ptr %29, align 8
  %31 = load ptr, ptr %3, align 8
  %32 = getelementptr inbounds %struct.Vec_Int_t_, ptr %31, i32 0, i32 1
  %33 = load i32, ptr %32, align 4
  %34 = add nsw i32 %33, 1
  store i32 %34, ptr %32, align 4
  %35 = sext i32 %33 to i64
  %36 = getelementptr inbounds i32, ptr %30, i64 %35
  store i32 %27, ptr %36, align 4
  ret void
}

; Function Attrs: nounwind uwtable
define internal i32 @toLitCond(i32 noundef %0, i32 noundef %1) #0 {
  %3 = alloca i32, align 4
  %4 = alloca i32, align 4
  store i32 %0, ptr %3, align 4
  store i32 %1, ptr %4, align 4
  %5 = load i32, ptr %3, align 4
  %6 = load i32, ptr %3, align 4
  %7 = add nsw i32 %5, %6
  %8 = load i32, ptr %4, align 4
  %9 = icmp ne i32 %8, 0
  %10 = zext i1 %9 to i32
  %11 = add nsw i32 %7, %10
  ret i32 %11
}

; Function Attrs: nounwind uwtable
define internal ptr @Abc_ObjRegular(ptr noundef %0) #0 {
  %2 = alloca ptr, align 8
  store ptr %0, ptr %2, align 8
  %3 = load ptr, ptr %2, align 8
  %4 = ptrtoint ptr %3 to i64
  %5 = and i64 %4, -2
  %6 = inttoptr i64 %5 to ptr
  ret ptr %6
}

; Function Attrs: nounwind uwtable
define internal i32 @Abc_ObjIsComplement(ptr noundef %0) #0 {
  %2 = alloca ptr, align 8
  store ptr %0, ptr %2, align 8
  %3 = load ptr, ptr %2, align 8
  %4 = ptrtoint ptr %3 to i64
  %5 = and i64 %4, 1
  %6 = trunc i64 %5 to i32
  ret i32 %6
}

; Function Attrs: nounwind uwtable
define i32 @Abc_NtkClauseAnd(ptr noundef %0, ptr noundef %1, ptr noundef %2, ptr noundef %3) #0 {
  %5 = alloca i32, align 4
  %6 = alloca ptr, align 8
  %7 = alloca ptr, align 8
  %8 = alloca ptr, align 8
  %9 = alloca ptr, align 8
  %10 = alloca i32, align 4
  %11 = alloca i32, align 4
  %12 = alloca i32, align 4
  %13 = alloca i32, align 4
  store ptr %0, ptr %6, align 8
  store ptr %1, ptr %7, align 8
  store ptr %2, ptr %8, align 8
  store ptr %3, ptr %9, align 8
  %14 = load ptr, ptr %7, align 8
  %15 = getelementptr inbounds %struct.Abc_Obj_t_, ptr %14, i32 0, i32 7
  %16 = load ptr, ptr %15, align 8
  %17 = ptrtoint ptr %16 to i64
  %18 = trunc i64 %17 to i32
  store i32 %18, ptr %11, align 4
  store i32 0, ptr %13, align 4
  br label %19

19:                                               ; preds = %71, %4
  %20 = load i32, ptr %13, align 4
  %21 = load ptr, ptr %8, align 8
  %22 = getelementptr inbounds %struct.Vec_Ptr_t_, ptr %21, i32 0, i32 1
  %23 = load i32, ptr %22, align 4
  %24 = icmp slt i32 %20, %23
  br i1 %24, label %25, label %74

25:                                               ; preds = %19
  %26 = load ptr, ptr %8, align 8
  %27 = getelementptr inbounds %struct.Vec_Ptr_t_, ptr %26, i32 0, i32 2
  %28 = load ptr, ptr %27, align 8
  %29 = load i32, ptr %13, align 4
  %30 = sext i32 %29 to i64
  %31 = getelementptr inbounds ptr, ptr %28, i64 %30
  %32 = load ptr, ptr %31, align 8
  %33 = call i32 @Abc_ObjIsComplement(ptr noundef %32)
  store i32 %33, ptr %10, align 4
  %34 = load ptr, ptr %8, align 8
  %35 = getelementptr inbounds %struct.Vec_Ptr_t_, ptr %34, i32 0, i32 2
  %36 = load ptr, ptr %35, align 8
  %37 = load i32, ptr %13, align 4
  %38 = sext i32 %37 to i64
  %39 = getelementptr inbounds ptr, ptr %36, i64 %38
  %40 = load ptr, ptr %39, align 8
  %41 = call ptr @Abc_ObjRegular(ptr noundef %40)
  %42 = getelementptr inbounds %struct.Abc_Obj_t_, ptr %41, i32 0, i32 7
  %43 = load ptr, ptr %42, align 8
  %44 = ptrtoint ptr %43 to i64
  %45 = trunc i64 %44 to i32
  store i32 %45, ptr %12, align 4
  %46 = load ptr, ptr %9, align 8
  %47 = getelementptr inbounds %struct.Vec_Int_t_, ptr %46, i32 0, i32 1
  store i32 0, ptr %47, align 4
  %48 = load ptr, ptr %9, align 8
  %49 = load i32, ptr %12, align 4
  %50 = load i32, ptr %10, align 4
  %51 = call i32 @toLitCond(i32 noundef %49, i32 noundef %50)
  call void @Vec_IntPush(ptr noundef %48, i32 noundef %51)
  %52 = load ptr, ptr %9, align 8
  %53 = load i32, ptr %11, align 4
  %54 = call i32 @toLitCond(i32 noundef %53, i32 noundef 1)
  call void @Vec_IntPush(ptr noundef %52, i32 noundef %54)
  %55 = load ptr, ptr %6, align 8
  %56 = load ptr, ptr %9, align 8
  %57 = getelementptr inbounds %struct.Vec_Int_t_, ptr %56, i32 0, i32 2
  %58 = load ptr, ptr %57, align 8
  %59 = load ptr, ptr %9, align 8
  %60 = getelementptr inbounds %struct.Vec_Int_t_, ptr %59, i32 0, i32 2
  %61 = load ptr, ptr %60, align 8
  %62 = load ptr, ptr %9, align 8
  %63 = getelementptr inbounds %struct.Vec_Int_t_, ptr %62, i32 0, i32 1
  %64 = load i32, ptr %63, align 4
  %65 = sext i32 %64 to i64
  %66 = getelementptr inbounds i32, ptr %61, i64 %65
  %67 = call i32 @sat_solver_addclause(ptr noundef %55, ptr noundef %58, ptr noundef %66)
  %68 = icmp ne i32 %67, 0
  br i1 %68, label %70, label %69

69:                                               ; preds = %25
  store i32 0, ptr %5, align 4
  br label %131

70:                                               ; preds = %25
  br label %71

71:                                               ; preds = %70
  %72 = load i32, ptr %13, align 4
  %73 = add nsw i32 %72, 1
  store i32 %73, ptr %13, align 4
  br label %19, !llvm.loop !8

74:                                               ; preds = %19
  %75 = load ptr, ptr %9, align 8
  %76 = getelementptr inbounds %struct.Vec_Int_t_, ptr %75, i32 0, i32 1
  store i32 0, ptr %76, align 4
  store i32 0, ptr %13, align 4
  br label %77

77:                                               ; preds = %111, %74
  %78 = load i32, ptr %13, align 4
  %79 = load ptr, ptr %8, align 8
  %80 = getelementptr inbounds %struct.Vec_Ptr_t_, ptr %79, i32 0, i32 1
  %81 = load i32, ptr %80, align 4
  %82 = icmp slt i32 %78, %81
  br i1 %82, label %83, label %114

83:                                               ; preds = %77
  %84 = load ptr, ptr %8, align 8
  %85 = getelementptr inbounds %struct.Vec_Ptr_t_, ptr %84, i32 0, i32 2
  %86 = load ptr, ptr %85, align 8
  %87 = load i32, ptr %13, align 4
  %88 = sext i32 %87 to i64
  %89 = getelementptr inbounds ptr, ptr %86, i64 %88
  %90 = load ptr, ptr %89, align 8
  %91 = call i32 @Abc_ObjIsComplement(ptr noundef %90)
  store i32 %91, ptr %10, align 4
  %92 = load ptr, ptr %8, align 8
  %93 = getelementptr inbounds %struct.Vec_Ptr_t_, ptr %92, i32 0, i32 2
  %94 = load ptr, ptr %93, align 8
  %95 = load i32, ptr %13, align 4
  %96 = sext i32 %95 to i64
  %97 = getelementptr inbounds ptr, ptr %94, i64 %96
  %98 = load ptr, ptr %97, align 8
  %99 = call ptr @Abc_ObjRegular(ptr noundef %98)
  %100 = getelementptr inbounds %struct.Abc_Obj_t_, ptr %99, i32 0, i32 7
  %101 = load ptr, ptr %100, align 8
  %102 = ptrtoint ptr %101 to i64
  %103 = trunc i64 %102 to i32
  store i32 %103, ptr %12, align 4
  %104 = load ptr, ptr %9, align 8
  %105 = load i32, ptr %12, align 4
  %106 = load i32, ptr %10, align 4
  %107 = icmp ne i32 %106, 0
  %108 = xor i1 %107, true
  %109 = zext i1 %108 to i32
  %110 = call i32 @toLitCond(i32 noundef %105, i32 noundef %109)
  call void @Vec_IntPush(ptr noundef %104, i32 noundef %110)
  br label %111

111:                                              ; preds = %83
  %112 = load i32, ptr %13, align 4
  %113 = add nsw i32 %112, 1
  store i32 %113, ptr %13, align 4
  br label %77, !llvm.loop !9

114:                                              ; preds = %77
  %115 = load ptr, ptr %9, align 8
  %116 = load i32, ptr %11, align 4
  %117 = call i32 @toLitCond(i32 noundef %116, i32 noundef 0)
  call void @Vec_IntPush(ptr noundef %115, i32 noundef %117)
  %118 = load ptr, ptr %6, align 8
  %119 = load ptr, ptr %9, align 8
  %120 = getelementptr inbounds %struct.Vec_Int_t_, ptr %119, i32 0, i32 2
  %121 = load ptr, ptr %120, align 8
  %122 = load ptr, ptr %9, align 8
  %123 = getelementptr inbounds %struct.Vec_Int_t_, ptr %122, i32 0, i32 2
  %124 = load ptr, ptr %123, align 8
  %125 = load ptr, ptr %9, align 8
  %126 = getelementptr inbounds %struct.Vec_Int_t_, ptr %125, i32 0, i32 1
  %127 = load i32, ptr %126, align 4
  %128 = sext i32 %127 to i64
  %129 = getelementptr inbounds i32, ptr %124, i64 %128
  %130 = call i32 @sat_solver_addclause(ptr noundef %118, ptr noundef %121, ptr noundef %129)
  store i32 %130, ptr %5, align 4
  br label %131

131:                                              ; preds = %114, %69
  %132 = load i32, ptr %5, align 4
  ret i32 %132
}