; Function Attrs: nounwind uwtable
define i32 @Abc_NtkClauseAnd(ptr noundef %0, ptr noundef readonly captures(none) %1, ptr noundef readonly captures(none) %2, ptr noundef captures(none) initializes((4, 8)) %3) local_unnamed_addr #0 {
  %5 = getelementptr inbounds nuw i8, ptr %1, i64 64
  %6 = load ptr, ptr %5, align 8
  %7 = ptrtoint ptr %6 to i64
  %8 = trunc i64 %7 to i32
  %9 = getelementptr inbounds nuw i8, ptr %2, i64 4
  %10 = load i32, ptr %9, align 4
  %11 = icmp sgt i32 %10, 0
  br i1 %11, label %.lr.ph, label %._crit_edge

.lr.ph:                                           ; preds = %4
  %12 = getelementptr inbounds nuw i8, ptr %2, i64 8
  %13 = getelementptr inbounds nuw i8, ptr %3, i64 4
  %.phi.trans.insert.i = getelementptr inbounds nuw i8, ptr %3, i64 8
  %14 = shl nsw i32 %8, 1
  %15 = or disjoint i32 %14, 1
  br label %20

16:                                               ; preds = %Vec_IntPush.exit42
  %indvars.iv.next = add nuw nsw i64 %indvars.iv, 1
  %17 = load i32, ptr %9, align 4
  %18 = sext i32 %17 to i64
  %19 = icmp slt i64 %indvars.iv.next, %18
  br i1 %19, label %20, label %._crit_edge, !llvm.loop !11

20:                                               ; preds = %.lr.ph, %16
  %indvars.iv = phi i64 [ 0, %.lr.ph ], [ %indvars.iv.next, %16 ]
  %21 = load ptr, ptr %12, align 8
  %22 = getelementptr inbounds nuw ptr, ptr %21, i64 %indvars.iv
  %23 = load ptr, ptr %22, align 8
  %24 = ptrtoint ptr %23 to i64
  %25 = trunc i64 %24 to i32
  %26 = and i32 %25, 1
  %27 = and i64 %24, -2
  %28 = inttoptr i64 %27 to ptr
  %29 = getelementptr inbounds nuw i8, ptr %28, i64 64
  %30 = load ptr, ptr %29, align 8
  %31 = ptrtoint ptr %30 to i64
  %32 = trunc i64 %31 to i32
  store i32 0, ptr %13, align 4
  %33 = shl nsw i32 %32, 1
  %34 = or disjoint i32 %33, %26
  %35 = load i32, ptr %3, align 8
  %36 = icmp eq i32 %35, 0
  %37 = load ptr, ptr %.phi.trans.insert.i, align 8
  br i1 %36, label %38, label %Vec_IntPush.exit

38:                                               ; preds = %20
  %.not9.i.i = icmp eq ptr %37, null
  br i1 %.not9.i.i, label %41, label %39

39:                                               ; preds = %38
  %40 = tail call dereferenceable_or_null(64) ptr @realloc(ptr noundef nonnull %37, i64 noundef 64) #13
  %.pre.pre = load i32, ptr %13, align 4
  br label %Vec_IntGrow.exit.i

41:                                               ; preds = %38
  %42 = tail call noalias dereferenceable_or_null(64) ptr @malloc(i64 noundef 64) #12
  br label %Vec_IntGrow.exit.i

Vec_IntGrow.exit.i:                               ; preds = %41, %39
  %.pre = phi i32 [ %.pre.pre, %39 ], [ 0, %41 ]
  %43 = phi ptr [ %40, %39 ], [ %42, %41 ]
  store ptr %43, ptr %.phi.trans.insert.i, align 8
  store i32 16, ptr %3, align 8
  br label %Vec_IntPush.exit

Vec_IntPush.exit:                                 ; preds = %20, %Vec_IntGrow.exit.i
  %44 = phi i32 [ %.pre, %Vec_IntGrow.exit.i ], [ 0, %20 ]
  %45 = phi ptr [ %43, %Vec_IntGrow.exit.i ], [ %37, %20 ]
  %46 = add nsw i32 %44, 1
  store i32 %46, ptr %13, align 4
  %47 = sext i32 %44 to i64
  %48 = getelementptr inbounds i32, ptr %45, i64 %47
  store i32 %34, ptr %48, align 4
  %49 = load i32, ptr %13, align 4
  %50 = load i32, ptr %3, align 8
  %51 = icmp eq i32 %49, %50
  br i1 %51, label %52, label %.Vec_IntGrow.exit10_crit_edge.i36

.Vec_IntGrow.exit10_crit_edge.i36:                ; preds = %Vec_IntPush.exit
  %.pre.i38 = load ptr, ptr %.phi.trans.insert.i, align 8
  br label %Vec_IntPush.exit42

52:                                               ; preds = %Vec_IntPush.exit
  %53 = icmp slt i32 %49, 16
  br i1 %53, label %54, label %61

54:                                               ; preds = %52
  %55 = load ptr, ptr %.phi.trans.insert.i, align 8
  %.not9.i.i40 = icmp eq ptr %55, null
  br i1 %.not9.i.i40, label %58, label %56

56:                                               ; preds = %54
  %57 = tail call dereferenceable_or_null(64) ptr @realloc(ptr noundef nonnull %55, i64 noundef 64) #13
  br label %Vec_IntGrow.exit.i41

58:                                               ; preds = %54
  %59 = tail call noalias dereferenceable_or_null(64) ptr @malloc(i64 noundef 64) #12
  br label %Vec_IntGrow.exit.i41

Vec_IntGrow.exit.i41:                             ; preds = %58, %56
  %60 = phi ptr [ %57, %56 ], [ %59, %58 ]
  store ptr %60, ptr %.phi.trans.insert.i, align 8
  store i32 16, ptr %3, align 8
  br label %Vec_IntPush.exit42

61:                                               ; preds = %52
  %62 = shl nuw nsw i32 %49, 1
  %63 = load ptr, ptr %.phi.trans.insert.i, align 8
  %.not9.i9.i39 = icmp eq ptr %63, null
  %64 = zext nneg i32 %62 to i64
  %65 = shl nuw nsw i64 %64, 2
  br i1 %.not9.i9.i39, label %68, label %66

66:                                               ; preds = %61
  %67 = tail call ptr @realloc(ptr noundef nonnull %63, i64 noundef %65) #13
  br label %70

68:                                               ; preds = %61
  %69 = tail call noalias ptr @malloc(i64 noundef %65) #12
  br label %70

70:                                               ; preds = %68, %66
  %71 = phi ptr [ %67, %66 ], [ %69, %68 ]
  store ptr %71, ptr %.phi.trans.insert.i, align 8
  store i32 %62, ptr %3, align 8
  br label %Vec_IntPush.exit42

Vec_IntPush.exit42:                               ; preds = %.Vec_IntGrow.exit10_crit_edge.i36, %Vec_IntGrow.exit.i41, %70
  %72 = phi ptr [ %.pre.i38, %.Vec_IntGrow.exit10_crit_edge.i36 ], [ %71, %70 ], [ %60, %Vec_IntGrow.exit.i41 ]
  %73 = load i32, ptr %13, align 4
  %74 = add nsw i32 %73, 1
  store i32 %74, ptr %13, align 4
  %75 = sext i32 %73 to i64
  %76 = getelementptr inbounds i32, ptr %72, i64 %75
  store i32 %15, ptr %76, align 4
  %77 = load ptr, ptr %.phi.trans.insert.i, align 8
  %78 = load i32, ptr %13, align 4
  %79 = sext i32 %78 to i64
  %80 = getelementptr inbounds i32, ptr %77, i64 %79
  %81 = tail call i32 @sat_solver_addclause(ptr noundef %0, ptr noundef %77, ptr noundef %80) #11
  %.not = icmp eq i32 %81, 0
  br i1 %.not, label %.loopexit, label %16

._crit_edge:                                      ; preds = %16, %4
  %82 = getelementptr inbounds nuw i8, ptr %3, i64 4
  store i32 0, ptr %82, align 4
  %83 = load i32, ptr %9, align 4
  %84 = icmp sgt i32 %83, 0
  br i1 %84, label %.lr.ph61, label %._crit_edge62.thread

.lr.ph61:                                         ; preds = %._crit_edge
  %85 = getelementptr inbounds nuw i8, ptr %2, i64 8
  %.phi.trans.insert.i44 = getelementptr inbounds nuw i8, ptr %3, i64 8
  br label %86

86:                                               ; preds = %.lr.ph61, %Vec_IntPush.exit49
  %indvars.iv64 = phi i64 [ 0, %.lr.ph61 ], [ %indvars.iv.next65, %Vec_IntPush.exit49 ]
  %87 = load ptr, ptr %85, align 8
  %88 = getelementptr inbounds nuw ptr, ptr %87, i64 %indvars.iv64
  %89 = load ptr, ptr %88, align 8
  %90 = ptrtoint ptr %89 to i64
  %91 = trunc i64 %90 to i32
  %92 = and i32 %91, 1
  %93 = and i64 %90, -2
  %94 = inttoptr i64 %93 to ptr
  %95 = getelementptr inbounds nuw i8, ptr %94, i64 64
  %96 = load ptr, ptr %95, align 8
  %97 = ptrtoint ptr %96 to i64
  %98 = trunc i64 %97 to i32
  %99 = shl nsw i32 %98, 1
  %100 = or disjoint i32 %99, %92
  %101 = xor i32 %100, 1
  %102 = load i32, ptr %82, align 4
  %103 = load i32, ptr %3, align 8
  %104 = icmp eq i32 %102, %103
  br i1 %104, label %105, label %.Vec_IntGrow.exit10_crit_edge.i43

.Vec_IntGrow.exit10_crit_edge.i43:                ; preds = %86
  %.pre.i45 = load ptr, ptr %.phi.trans.insert.i44, align 8
  br label %Vec_IntPush.exit49

105:                                              ; preds = %86
  %106 = icmp slt i32 %102, 16
  br i1 %106, label %107, label %114

107:                                              ; preds = %105
  %108 = load ptr, ptr %.phi.trans.insert.i44, align 8
  %.not9.i.i47 = icmp eq ptr %108, null
  br i1 %.not9.i.i47, label %111, label %109

109:                                              ; preds = %107
  %110 = tail call dereferenceable_or_null(64) ptr @realloc(ptr noundef nonnull %108, i64 noundef 64) #13
  br label %Vec_IntGrow.exit.i48

111:                                              ; preds = %107
  %112 = tail call noalias dereferenceable_or_null(64) ptr @malloc(i64 noundef 64) #12
  br label %Vec_IntGrow.exit.i48

Vec_IntGrow.exit.i48:                             ; preds = %111, %109
  %113 = phi ptr [ %110, %109 ], [ %112, %111 ]
  store ptr %113, ptr %.phi.trans.insert.i44, align 8
  store i32 16, ptr %3, align 8
  br label %Vec_IntPush.exit49

114:                                              ; preds = %105
  %115 = shl nuw nsw i32 %102, 1
  %116 = load ptr, ptr %.phi.trans.insert.i44, align 8
  %.not9.i9.i46 = icmp eq ptr %116, null
  %117 = zext nneg i32 %115 to i64
  %118 = shl nuw nsw i64 %117, 2
  br i1 %.not9.i9.i46, label %121, label %119

119:                                              ; preds = %114
  %120 = tail call ptr @realloc(ptr noundef nonnull %116, i64 noundef %118) #13
  br label %123

121:                                              ; preds = %114
  %122 = tail call noalias ptr @malloc(i64 noundef %118) #12
  br label %123

123:                                              ; preds = %121, %119
  %124 = phi ptr [ %120, %119 ], [ %122, %121 ]
  store ptr %124, ptr %.phi.trans.insert.i44, align 8
  store i32 %115, ptr %3, align 8
  br label %Vec_IntPush.exit49

Vec_IntPush.exit49:                               ; preds = %.Vec_IntGrow.exit10_crit_edge.i43, %Vec_IntGrow.exit.i48, %123
  %125 = phi ptr [ %.pre.i45, %.Vec_IntGrow.exit10_crit_edge.i43 ], [ %124, %123 ], [ %113, %Vec_IntGrow.exit.i48 ]
  %126 = load i32, ptr %82, align 4
  %127 = add nsw i32 %126, 1
  store i32 %127, ptr %82, align 4
  %128 = sext i32 %126 to i64
  %129 = getelementptr inbounds i32, ptr %125, i64 %128
  store i32 %101, ptr %129, align 4
  %indvars.iv.next65 = add nuw nsw i64 %indvars.iv64, 1
  %130 = load i32, ptr %9, align 4
  %131 = sext i32 %130 to i64
  %132 = icmp slt i64 %indvars.iv.next65, %131
  br i1 %132, label %86, label %._crit_edge62, !llvm.loop !12

._crit_edge62:                                    ; preds = %Vec_IntPush.exit49
  %.pre67 = load i32, ptr %82, align 4
  %133 = shl nsw i32 %8, 1
  %134 = load i32, ptr %3, align 8
  %135 = icmp eq i32 %.pre67, %134
  br i1 %135, label %140, label %.Vec_IntGrow.exit10_crit_edge.i50

._crit_edge62.thread:                             ; preds = %._crit_edge
  %136 = shl nsw i32 %8, 1
  %137 = load i32, ptr %3, align 8
  %138 = icmp eq i32 %137, 0
  br i1 %138, label %.thread, label %.Vec_IntGrow.exit10_crit_edge.i50

.Vec_IntGrow.exit10_crit_edge.i50:                ; preds = %._crit_edge62.thread, %._crit_edge62
  %139 = phi i32 [ %136, %._crit_edge62.thread ], [ %133, %._crit_edge62 ]
  %.phi.trans.insert.i51 = getelementptr inbounds nuw i8, ptr %3, i64 8
  %.pre.i52 = load ptr, ptr %.phi.trans.insert.i51, align 8
  br label %Vec_IntPush.exit56

140:                                              ; preds = %._crit_edge62
  %141 = icmp slt i32 %.pre67, 16
  br i1 %141, label %.thread, label %150

.thread:                                          ; preds = %._crit_edge62.thread, %140
  %142 = phi i32 [ %133, %140 ], [ %136, %._crit_edge62.thread ]
  %143 = getelementptr inbounds nuw i8, ptr %3, i64 8
  %144 = load ptr, ptr %143, align 8
  %.not9.i.i54 = icmp eq ptr %144, null
  br i1 %.not9.i.i54, label %147, label %145

145:                                              ; preds = %.thread
  %146 = tail call dereferenceable_or_null(64) ptr @realloc(ptr noundef nonnull %144, i64 noundef 64) #13
  br label %Vec_IntGrow.exit.i55

147:                                              ; preds = %.thread
  %148 = tail call noalias dereferenceable_or_null(64) ptr @malloc(i64 noundef 64) #12
  br label %Vec_IntGrow.exit.i55

Vec_IntGrow.exit.i55:                             ; preds = %147, %145
  %149 = phi ptr [ %146, %145 ], [ %148, %147 ]
  store ptr %149, ptr %143, align 8
  store i32 16, ptr %3, align 8
  br label %Vec_IntPush.exit56

150:                                              ; preds = %140
  %151 = shl nuw nsw i32 %.pre67, 1
  %152 = getelementptr inbounds nuw i8, ptr %3, i64 8
  %153 = load ptr, ptr %152, align 8
  %.not9.i9.i53 = icmp eq ptr %153, null
  %154 = zext nneg i32 %151 to i64
  %155 = shl nuw nsw i64 %154, 2
  br i1 %.not9.i9.i53, label %158, label %156

156:                                              ; preds = %150
  %157 = tail call ptr @realloc(ptr noundef nonnull %153, i64 noundef %155) #13
  br label %160

158:                                              ; preds = %150
  %159 = tail call noalias ptr @malloc(i64 noundef %155) #12
  br label %160

160:                                              ; preds = %158, %156
  %161 = phi ptr [ %157, %156 ], [ %159, %158 ]
  store ptr %161, ptr %152, align 8
  store i32 %151, ptr %3, align 8
  br label %Vec_IntPush.exit56

Vec_IntPush.exit56:                               ; preds = %.Vec_IntGrow.exit10_crit_edge.i50, %Vec_IntGrow.exit.i55, %160
  %162 = phi i32 [ %139, %.Vec_IntGrow.exit10_crit_edge.i50 ], [ %133, %160 ], [ %142, %Vec_IntGrow.exit.i55 ]
  %163 = phi ptr [ %.pre.i52, %.Vec_IntGrow.exit10_crit_edge.i50 ], [ %161, %160 ], [ %149, %Vec_IntGrow.exit.i55 ]
  %164 = load i32, ptr %82, align 4
  %165 = add nsw i32 %164, 1
  store i32 %165, ptr %82, align 4
  %166 = sext i32 %164 to i64
  %167 = getelementptr inbounds i32, ptr %163, i64 %166
  store i32 %162, ptr %167, align 4
  %168 = getelementptr inbounds nuw i8, ptr %3, i64 8
  %169 = load ptr, ptr %168, align 8
  %170 = load i32, ptr %82, align 4
  %171 = sext i32 %170 to i64
  %172 = getelementptr inbounds i32, ptr %169, i64 %171
  %173 = tail call i32 @sat_solver_addclause(ptr noundef %0, ptr noundef %169, ptr noundef %172) #11
  br label %.loopexit

.loopexit:                                        ; preds = %Vec_IntPush.exit42, %Vec_IntPush.exit56
  %.035 = phi i32 [ %173, %Vec_IntPush.exit56 ], [ 0, %Vec_IntPush.exit42 ]
  ret i32 %.035
}